target datalayout = "e-m:e-p270:32:32-p271:32:32-p272:64:64-i64:64-i128:128-f80:128-n8:16:32:64-S128"
target triple = "x86_64-pc-linux-gnu"

%"class.cv::Mat" = type { i32, i32, i32, i32, ptr, ptr, ptr, ptr, ptr, ptr, %"struct.cv::MatSize", %"struct.cv::MatStep" }
%"struct.cv::MatSize" = type { ptr }
%"struct.cv::MatStep" = type { ptr, [2 x i64] }

; Function Attrs: inlinehint mustprogress nounwind uwtable
define linkonce_odr hidden noundef nonnull align 4 dereferenceable(4) ptr @_ZNK2cv7MatSizeixEi(ptr noundef nonnull align 8 dereferenceable(8) %0, i32 noundef %1) #3 comdat align 2 {
  %3 = alloca ptr, align 8
  %4 = alloca i32, align 4
  store ptr %0, ptr %3, align 8, !tbaa !153
  store i32 %1, ptr %4, align 4, !tbaa !3
  %5 = load ptr, ptr %3, align 8
  %6 = getelementptr inbounds nuw %"struct.cv::MatSize", ptr %5, i32 0, i32 0
  %7 = load ptr, ptr %6, align 8, !tbaa !155
  %8 = load i32, ptr %4, align 4, !tbaa !3
  %9 = sext i32 %8 to i64
  %10 = getelementptr inbounds i32, ptr %7, i64 %9
  ret ptr %10
}

; Function Attrs: mustprogress uwtable
define internal void @_ZN2cv11xfeatures2dL16ti_get_histogramEPfdddPKNS_3MatE(ptr noundef %0, double noundef %1, double noundef %2, double noundef %3, ptr noundef %4) #4 {
  %6 = alloca ptr, align 8
  %7 = alloca double, align 8
  %8 = alloca double, align 8
  %9 = alloca double, align 8
  %10 = alloca ptr, align 8
  %11 = alloca i32, align 4
  %12 = alloca double, align 8
  %13 = alloca [64 x float], align 16
  %14 = alloca i32, align 4
  %15 = alloca i32, align 4
  store ptr %0, ptr %6, align 8, !tbaa !20
  store double %1, ptr %7, align 8, !tbaa !7
  store double %2, ptr %8, align 8, !tbaa !7
  store double %3, ptr %9, align 8, !tbaa !7
  store ptr %4, ptr %10, align 8, !tbaa !52
  call void @llvm.lifetime.start.p0(i64 4, ptr %11) #24
  %16 = load double, ptr %9, align 8, !tbaa !7
  %17 = fptosi double %16 to i32
  store i32 %17, ptr %11, align 4, !tbaa !3
  call void @llvm.lifetime.start.p0(i64 8, ptr %12) #24
  %18 = load double, ptr %9, align 8, !tbaa !7
  %19 = load i32, ptr %11, align 4, !tbaa !3
  %20 = sitofp i32 %19 to double
  %21 = fsub double %18, %20
  store double %21, ptr %12, align 8, !tbaa !7
  call void @llvm.lifetime.start.p0(i64 256, ptr %13) #24
  %22 = getelementptr inbounds [64 x float], ptr %13, i64 0, i64 0
  %23 = load double, ptr %7, align 8, !tbaa !7
  %24 = load double, ptr %8, align 8, !tbaa !7
  %25 = load i32, ptr %11, align 4, !tbaa !3
  %26 = load ptr, ptr %10, align 8, !tbaa !52
  call void @_ZN2cv11xfeatures2dL16bi_get_histogramEPfddiPKNS_3MatE(ptr noundef %22, double noundef %23, double noundef %24, i32 noundef %25, ptr noundef %26)
  call void @llvm.lifetime.start.p0(i64 4, ptr %14) #24
  %27 = load ptr, ptr %10, align 8, !tbaa !52
  %28 = getelementptr inbounds nuw %"class.cv::Mat", ptr %27, i32 0, i32 10
  %29 = call noundef nonnull align 4 dereferenceable(4) ptr @_ZNK2cv7MatSizeixEi(ptr noundef nonnull align 8 dereferenceable(8) %28, i32 noundef 2)
  %30 = load i32, ptr %29, align 4, !tbaa !3
  store i32 %30, ptr %14, align 4, !tbaa !3
  call void @llvm.lifetime.start.p0(i64 4, ptr %15) #24
  store i32 0, ptr %15, align 4, !tbaa !3
  br label %31

31:                                               ; preds = %59, %5
  %32 = load i32, ptr %15, align 4, !tbaa !3
  %33 = load i32, ptr %14, align 4, !tbaa !3
  %34 = sub nsw i32 %33, 1
  %35 = icmp slt i32 %32, %34
  br i1 %35, label %37, label %36

36:                                               ; preds = %31
  call void @llvm.lifetime.end.p0(i64 4, ptr %15) #24
  br label %62

37:                                               ; preds = %31
  %38 = load double, ptr %12, align 8, !tbaa !7
  %39 = fsub double 1.000000e+00, %38
  %40 = load i32, ptr %15, align 4, !tbaa !3
  %41 = sext i32 %40 to i64
  %42 = getelementptr inbounds [64 x float], ptr %13, i64 0, i64 %41
  %43 = load float, ptr %42, align 4, !tbaa !109
  %44 = fpext float %43 to double
  %45 = load double, ptr %12, align 8, !tbaa !7
  %46 = load i32, ptr %15, align 4, !tbaa !3
  %47 = add nsw i32 %46, 1
  %48 = sext i32 %47 to i64
  %49 = getelementptr inbounds [64 x float], ptr %13, i64 0, i64 %48
  %50 = load float, ptr %49, align 4, !tbaa !109
  %51 = fpext float %50 to double
  %52 = fmul double %45, %51
  %53 = call double @llvm.fmuladd.f64(double %39, double %44, double %52)
  %54 = fptrunc double %53 to float
  %55 = load ptr, ptr %6, align 8, !tbaa !20
  %56 = load i32, ptr %15, align 4, !tbaa !3
  %57 = sext i32 %56 to i64
  %58 = getelementptr inbounds float, ptr %55, i64 %57
  store float %54, ptr %58, align 4, !tbaa !109
  br label %59

59:                                               ; preds = %37
  %60 = load i32, ptr %15, align 4, !tbaa !3
  %61 = add nsw i32 %60, 1
  store i32 %61, ptr %15, align 4, !tbaa !3
  br label %31, !llvm.loop !172

62:                                               ; preds = %36
  %63 = load double, ptr %12, align 8, !tbaa !7
  %64 = fsub double 1.000000e+00, %63
  %65 = load i32, ptr %14, align 4, !tbaa !3
  %66 = sub nsw i32 %65, 1
  %67 = sext i32 %66 to i64
  %68 = getelementptr inbounds [64 x float], ptr %13, i64 0, i64 %67
  %69 = load float, ptr %68, align 4, !tbaa !109
  %70 = fpext float %69 to double
  %71 = load double, ptr %12, align 8, !tbaa !7
  %72 = getelementptr inbounds [64 x float], ptr %13, i64 0, i64 0
  %73 = load float, ptr %72, align 16, !tbaa !109
  %74 = fpext float %73 to double
  %75 = fmul double %71, %74
  %76 = call double @llvm.fmuladd.f64(double %64, double %70, double %75)
  %77 = fptrunc double %76 to float
  %78 = load ptr, ptr %6, align 8, !tbaa !20
  %79 = load i32, ptr %14, align 4, !tbaa !3
  %80 = sub nsw i32 %79, 1
  %81 = sext i32 %80 to i64
  %82 = getelementptr inbounds float, ptr %78, i64 %81
  store float %77, ptr %82, align 4, !tbaa !109
  call void @llvm.lifetime.end.p0(i64 4, ptr %14) #24
  call void @llvm.lifetime.end.p0(i64 256, ptr %13) #24
  call void @llvm.lifetime.end.p0(i64 8, ptr %12) #24
  call void @llvm.lifetime.end.p0(i64 4, ptr %11) #24
  ret void
}

; Function Attrs: mustprogress uwtable
define internal void @_ZN2cv11xfeatures2dL15i_get_histogramEPfdddPKNS_3MatE(ptr noundef %0, double noundef %1, double noundef %2, double noundef %3, ptr noundef %4) #4 {
  %6 = alloca ptr, align 8
  %7 = alloca double, align 8
  %8 = alloca double, align 8
  %9 = alloca double, align 8
  %10 = alloca ptr, align 8
  %11 = alloca i32, align 4
  %12 = alloca double, align 8
  store ptr %0, ptr %6, align 8, !tbaa !20
  store double %1, ptr %7, align 8, !tbaa !7
  store double %2, ptr %8, align 8, !tbaa !7
  store double %3, ptr %9, align 8, !tbaa !7
  store ptr %4, ptr %10, align 8, !tbaa !52
  call void @llvm.lifetime.start.p0(i64 4, ptr %11) #24
  %13 = load double, ptr %9, align 8, !tbaa !7
  %14 = fptosi double %13 to i32
  store i32 %14, ptr %11, align 4, !tbaa !3
  call void @llvm.lifetime.start.p0(i64 8, ptr %12) #24
  %15 = load double, ptr %9, align 8, !tbaa !7
  %16 = load i32, ptr %11, align 4, !tbaa !3
  %17 = sitofp i32 %16 to double
  %18 = fsub double %15, %17
  store double %18, ptr %12, align 8, !tbaa !7
  %19 = load double, ptr %12, align 8, !tbaa !7
  %20 = fcmp olt double %19, 1.000000e-02
  br i1 %20, label %21, label %27

21:                                               ; preds = %5
  %22 = load ptr, ptr %6, align 8, !tbaa !20
  %23 = load double, ptr %7, align 8, !tbaa !7
  %24 = load double, ptr %8, align 8, !tbaa !7
  %25 = load i32, ptr %11, align 4, !tbaa !3
  %26 = load ptr, ptr %10, align 8, !tbaa !52
  call void @_ZN2cv11xfeatures2dL16bi_get_histogramEPfddiPKNS_3MatE(ptr noundef %22, double noundef %23, double noundef %24, i32 noundef %25, ptr noundef %26)
  br label %44

27:                                               ; preds = %5
  %28 = load double, ptr %12, align 8, !tbaa !7
  %29 = fcmp ogt double %28, 0x3FEFAE147AE147AE
  br i1 %29, label %30, label %37

30:                                               ; preds = %27
  %31 = load ptr, ptr %6, align 8, !tbaa !20
  %32 = load double, ptr %7, align 8, !tbaa !7
  %33 = load double, ptr %8, align 8, !tbaa !7
  %34 = load i32, ptr %11, align 4, !tbaa !3
  %35 = add nsw i32 %34, 1
  %36 = load ptr, ptr %10, align 8, !tbaa !52
  call void @_ZN2cv11xfeatures2dL16bi_get_histogramEPfddiPKNS_3MatE(ptr noundef %31, double noundef %32, double noundef %33, i32 noundef %35, ptr noundef %36)
  br label %43

37:                                               ; preds = %27
  %38 = load ptr, ptr %6, align 8, !tbaa !20
  %39 = load double, ptr %7, align 8, !tbaa !7
  %40 = load double, ptr %8, align 8, !tbaa !7
  %41 = load double, ptr %9, align 8, !tbaa !7
  %42 = load ptr, ptr %10, align 8, !tbaa !52
  call void @_ZN2cv11xfeatures2dL16ti_get_histogramEPfdddPKNS_3MatE(ptr noundef %38, double noundef %39, double noundef %40, double noundef %41, ptr noundef %42)
  br label %43

43:                                               ; preds = %37, %30
  br label %44

44:                                               ; preds = %43, %21
  call void @llvm.lifetime.end.p0(i64 8, ptr %12) #24
  call void @llvm.lifetime.end.p0(i64 4, ptr %11) #24
  ret void
}