; Function Attrs: mustprogress nofree norecurse nosync nounwind memory(read, argmem: readwrite, inaccessiblemem: none) uwtable
define internal fastcc void @_ZN2cv11xfeatures2dL15i_get_histogramEPfdddPKNS_3MatE(ptr noundef nonnull captures(none) %0, double noundef %1, double noundef %2, double noundef %3, ptr noundef nonnull readonly captures(none) %4) unnamed_addr #16 {
  %6 = alloca [64 x float], align 16
  %7 = fptosi double %3 to i32
  %8 = sitofp i32 %7 to double
  %9 = fsub double %3, %8
  %10 = fcmp olt double %9, 1.000000e-02
  br i1 %10, label %11, label %12

11:                                               ; preds = %5
  tail call fastcc void @_ZN2cv11xfeatures2dL16bi_get_histogramEPfddiPKNS_3MatE(ptr noundef %0, double noundef %1, double noundef %2, i32 noundef %7, ptr noundef %4)
  br label %44

12:                                               ; preds = %5
  %13 = fcmp ogt double %9, 0x3FEFAE147AE147AE
  br i1 %13, label %14, label %16

14:                                               ; preds = %12
  %15 = add nsw i32 %7, 1
  tail call fastcc void @_ZN2cv11xfeatures2dL16bi_get_histogramEPfddiPKNS_3MatE(ptr noundef %0, double noundef %1, double noundef %2, i32 noundef %15, ptr noundef %4)
  br label %44

16:                                               ; preds = %12
  call void @llvm.lifetime.start.p0(i64 256, ptr nonnull %6) #28
  call fastcc void @_ZN2cv11xfeatures2dL16bi_get_histogramEPfddiPKNS_3MatE(ptr noundef %6, double noundef %1, double noundef %2, i32 noundef %7, ptr noundef nonnull readonly %4)
  %17 = getelementptr inbounds nuw i8, ptr %4, i64 64
  %18 = load ptr, ptr %17, align 8, !tbaa !37
  %19 = getelementptr inbounds nuw i8, ptr %18, i64 8
  %20 = load i32, ptr %19, align 4, !tbaa !38
  %21 = add i32 %20, -1
  %22 = icmp sgt i32 %20, 1
  br i1 %22, label %.lr.ph.i, label %.._crit_edge_crit_edge.i

.._crit_edge_crit_edge.i:                         ; preds = %16
  %.pre24.i = load float, ptr %6, align 16, !tbaa !55
  %.pre25.i = fsub double 1.000000e+00, %9
  br label %_ZN2cv11xfeatures2dL16ti_get_histogramEPfdddPKNS_3MatE.exit

.lr.ph.i:                                         ; preds = %16
  %23 = fsub double 1.000000e+00, %9
  %wide.trip.count.i = zext nneg i32 %21 to i64
  %.pre.i = load float, ptr %6, align 16, !tbaa !55
  br label %24

24:                                               ; preds = %24, %.lr.ph.i
  %25 = phi float [ %.pre.i, %.lr.ph.i ], [ %28, %24 ]
  %indvars.iv.i = phi i64 [ 0, %.lr.ph.i ], [ %indvars.iv.next.i, %24 ]
  %26 = fpext float %25 to double
  %indvars.iv.next.i = add nuw nsw i64 %indvars.iv.i, 1
  %27 = getelementptr inbounds nuw [64 x float], ptr %6, i64 0, i64 %indvars.iv.next.i
  %28 = load float, ptr %27, align 4, !tbaa !55
  %29 = fpext float %28 to double
  %30 = fmul double %9, %29
  %31 = tail call double @llvm.fmuladd.f64(double %23, double %26, double %30)
  %32 = fptrunc double %31 to float
  %33 = getelementptr inbounds nuw float, ptr %0, i64 %indvars.iv.i
  store float %32, ptr %33, align 4, !tbaa !55
  %exitcond.not.i = icmp eq i64 %indvars.iv.next.i, %wide.trip.count.i
  br i1 %exitcond.not.i, label %_ZN2cv11xfeatures2dL16ti_get_histogramEPfdddPKNS_3MatE.exit, label %24, !llvm.loop !61

_ZN2cv11xfeatures2dL16ti_get_histogramEPfdddPKNS_3MatE.exit: ; preds = %24, %.._crit_edge_crit_edge.i
  %.pre-phi.i = phi double [ %.pre25.i, %.._crit_edge_crit_edge.i ], [ %23, %24 ]
  %34 = phi float [ %.pre24.i, %.._crit_edge_crit_edge.i ], [ %.pre.i, %24 ]
  %35 = sext i32 %21 to i64
  %36 = getelementptr inbounds [64 x float], ptr %6, i64 0, i64 %35
  %37 = load float, ptr %36, align 4, !tbaa !55
  %38 = fpext float %37 to double
  %39 = fpext float %34 to double
  %40 = fmul double %9, %39
  %41 = tail call double @llvm.fmuladd.f64(double %.pre-phi.i, double %38, double %40)
  %42 = fptrunc double %41 to float
  %43 = getelementptr inbounds float, ptr %0, i64 %35
  store float %42, ptr %43, align 4, !tbaa !55
  call void @llvm.lifetime.end.p0(i64 256, ptr nonnull %6) #28
  br label %44

44:                                               ; preds = %14, %_ZN2cv11xfeatures2dL16ti_get_histogramEPfdddPKNS_3MatE.exit, %11
  ret void
}